target datalayout = "e-m:e-p270:32:32-p271:32:32-p272:64:64-i64:64-i128:128-f80:128-n8:16:32:64-S128"
target triple = "x86_64-pc-linux-gnu"

@colopts = internal global i32 0, align 4
@.str.64 = private unnamed_addr constant [4 x i8] c"tag\00", align 1
@config_sign_tag = internal global i32 -1, align 4
@force_sign_annotate = internal global i32 0, align 4
@.str.95 = private unnamed_addr constant [12 x i8] c"tag.gpgsign\00", align 1
@.str.96 = private unnamed_addr constant [9 x i8] c"tag.sort\00", align 1
@.str.97 = private unnamed_addr constant [23 x i8] c"tag.forcesignannotated\00", align 1
@.str.98 = private unnamed_addr constant [8 x i8] c"column.\00", align 1

; Function Attrs: inlinehint nounwind uwtable
define internal i32 @const_error() #5 {
  ret i32 -1
}

; Function Attrs: nounwind uwtable
define internal i32 @git_tag_config(ptr noundef %0, ptr noundef %1, ptr noundef %2, ptr noundef %3) #0 {
  %5 = alloca i32, align 4
  %6 = alloca ptr, align 8
  %7 = alloca ptr, align 8
  %8 = alloca ptr, align 8
  %9 = alloca ptr, align 8
  store ptr %0, ptr %6, align 8, !tbaa !11
  store ptr %1, ptr %7, align 8, !tbaa !11
  store ptr %2, ptr %8, align 8, !tbaa !89
  store ptr %3, ptr %9, align 8, !tbaa !88
  %10 = load ptr, ptr %6, align 8, !tbaa !11
  %11 = call i32 @strcmp(ptr noundef %10, ptr noundef @.str.95) #13
  %12 = icmp ne i32 %11, 0
  br i1 %12, label %17, label %13

13:                                               ; preds = %4
  %14 = load ptr, ptr %6, align 8, !tbaa !11
  %15 = load ptr, ptr %7, align 8, !tbaa !11
  %16 = call i32 @git_config_bool(ptr noundef %14, ptr noundef %15)
  store i32 %16, ptr @config_sign_tag, align 4, !tbaa !4
  store i32 0, ptr %5, align 4
  br label %61

17:                                               ; preds = %4
  %18 = load ptr, ptr %6, align 8, !tbaa !11
  %19 = call i32 @strcmp(ptr noundef %18, ptr noundef @.str.96) #13
  %20 = icmp ne i32 %19, 0
  br i1 %20, label %32, label %21

21:                                               ; preds = %17
  %22 = load ptr, ptr %7, align 8, !tbaa !11
  %23 = icmp ne ptr %22, null
  br i1 %23, label %28, label %24

24:                                               ; preds = %21
  %25 = load ptr, ptr %6, align 8, !tbaa !11
  %26 = call i32 @config_error_nonbool(ptr noundef %25)
  %27 = call i32 @const_error()
  store i32 %27, ptr %5, align 4
  br label %61

28:                                               ; preds = %21
  %29 = load ptr, ptr %9, align 8, !tbaa !88
  %30 = load ptr, ptr %7, align 8, !tbaa !11
  %31 = call ptr @string_list_append(ptr noundef %29, ptr noundef %30)
  store i32 0, ptr %5, align 4
  br label %61

32:                                               ; preds = %17
  %33 = load ptr, ptr %6, align 8, !tbaa !11
  %34 = call i32 @strcmp(ptr noundef %33, ptr noundef @.str.97) #13
  %35 = icmp ne i32 %34, 0
  br i1 %35, label %40, label %36

36:                                               ; preds = %32
  %37 = load ptr, ptr %6, align 8, !tbaa !11
  %38 = load ptr, ptr %7, align 8, !tbaa !11
  %39 = call i32 @git_config_bool(ptr noundef %37, ptr noundef %38)
  store i32 %39, ptr @force_sign_annotate, align 4, !tbaa !4
  store i32 0, ptr %5, align 4
  br label %61

40:                                               ; preds = %32
  %41 = load ptr, ptr %6, align 8, !tbaa !11
  %42 = call i32 @starts_with(ptr noundef %41, ptr noundef @.str.98)
  %43 = icmp ne i32 %42, 0
  br i1 %43, label %44, label %48

44:                                               ; preds = %40
  %45 = load ptr, ptr %6, align 8, !tbaa !11
  %46 = load ptr, ptr %7, align 8, !tbaa !11
  %47 = call i32 @git_column_config(ptr noundef %45, ptr noundef %46, ptr noundef @.str.64, ptr noundef @colopts)
  store i32 %47, ptr %5, align 4
  br label %61

48:                                               ; preds = %40
  %49 = load ptr, ptr %6, align 8, !tbaa !11
  %50 = load ptr, ptr %7, align 8, !tbaa !11
  %51 = load ptr, ptr %9, align 8, !tbaa !88
  %52 = call i32 @git_color_config(ptr noundef %49, ptr noundef %50, ptr noundef %51)
  %53 = icmp slt i32 %52, 0
  br i1 %53, label %54, label %55

54:                                               ; preds = %48
  store i32 -1, ptr %5, align 4
  br label %61

55:                                               ; preds = %48
  %56 = load ptr, ptr %6, align 8, !tbaa !11
  %57 = load ptr, ptr %7, align 8, !tbaa !11
  %58 = load ptr, ptr %8, align 8, !tbaa !89
  %59 = load ptr, ptr %9, align 8, !tbaa !88
  %60 = call i32 @git_default_config(ptr noundef %56, ptr noundef %57, ptr noundef %58, ptr noundef %59)
  store i32 %60, ptr %5, align 4
  br label %61

61:                                               ; preds = %55, %54, %44, %36, %28, %24, %13
  %62 = load i32, ptr %5, align 4
  ret i32 %62
}