; Function Attrs: nounwind uwtable
define internal i32 @git_tag_config(ptr noundef %0, ptr noundef %1, ptr noundef %2, ptr noundef %3) #0 {
  %5 = tail call i32 @strcmp(ptr noundef nonnull dereferenceable(1) %0, ptr noundef nonnull dereferenceable(12) @.str.95) #17
  %.not = icmp eq i32 %5, 0
  br i1 %.not, label %6, label %8

6:                                                ; preds = %4
  %7 = tail call i32 @git_config_bool(ptr noundef nonnull %0, ptr noundef %1) #15
  store i32 %7, ptr @config_sign_tag, align 4, !tbaa !9
  br label %28

8:                                                ; preds = %4
  %9 = tail call i32 @strcmp(ptr noundef nonnull dereferenceable(1) %0, ptr noundef nonnull dereferenceable(9) @.str.96) #17
  %.not22 = icmp eq i32 %9, 0
  br i1 %.not22, label %10, label %15

10:                                               ; preds = %8
  %.not23 = icmp eq ptr %1, null
  br i1 %.not23, label %11, label %13

11:                                               ; preds = %10
  %12 = tail call i32 @config_error_nonbool(ptr noundef nonnull %0) #15
  br label %28

13:                                               ; preds = %10
  %14 = tail call ptr @string_list_append(ptr noundef %3, ptr noundef nonnull %1) #15
  br label %28

15:                                               ; preds = %8
  %16 = tail call i32 @strcmp(ptr noundef nonnull dereferenceable(1) %0, ptr noundef nonnull dereferenceable(23) @.str.97) #17
  %.not24 = icmp eq i32 %16, 0
  br i1 %.not24, label %17, label %19

17:                                               ; preds = %15
  %18 = tail call i32 @git_config_bool(ptr noundef nonnull %0, ptr noundef %1) #15
  store i32 %18, ptr @force_sign_annotate, align 4, !tbaa !9
  br label %28

19:                                               ; preds = %15
  %20 = tail call i32 @starts_with(ptr noundef nonnull %0, ptr noundef nonnull @.str.98) #15
  %.not25 = icmp eq i32 %20, 0
  br i1 %.not25, label %23, label %21

21:                                               ; preds = %19
  %22 = tail call i32 @git_column_config(ptr noundef nonnull %0, ptr noundef %1, ptr noundef nonnull @.str.64, ptr noundef nonnull @colopts) #15
  br label %28

23:                                               ; preds = %19
  %24 = tail call i32 @git_color_config(ptr noundef nonnull %0, ptr noundef %1, ptr noundef %3) #15
  %25 = icmp slt i32 %24, 0
  br i1 %25, label %28, label %26

26:                                               ; preds = %23
  %27 = tail call i32 @git_default_config(ptr noundef nonnull %0, ptr noundef %1, ptr noundef %2, ptr noundef %3) #15
  br label %28

28:                                               ; preds = %23, %26, %21, %17, %13, %11, %6
  %.0 = phi i32 [ %22, %21 ], [ %27, %26 ], [ 0, %17 ], [ 0, %13 ], [ -1, %11 ], [ 0, %6 ], [ -1, %23 ]
  ret i32 %.0
}